target datalayout = "e-m:e-p270:32:32-p271:32:32-p272:64:64-i64:64-i128:128-f80:128-n8:16:32:64-S128"
target triple = "x86_64-pc-linux-gnu"

%struct.Agobj_s = type { %struct.Agtag_s, ptr }
%struct.Agtag_s = type { i32, i64 }
%struct.Agrec_s = type { ptr, ptr }
%struct.pointf_s = type { double, double }
%struct.Agedgeinfo_t = type { %struct.Agrec_s, ptr, %struct.port, %struct.port, ptr, ptr, ptr, ptr, i8, i8, i8, i8, i8, ptr, ptr, double, double, %struct.Ppoly_t, i8, i8, i16, i32, i32, i32, i16, i32, ptr }
%struct.port = type { %struct.pointf_s, double, ptr, i8, i8, i8, i8, i8, i8, ptr }
%struct.Ppoly_t = type { ptr, i64 }

@Nop = external global i32, align 4
@.str.17 = private unnamed_addr constant [27 x i8] c" in %s - setting to %.02f\0A\00", align 1
@.str.18 = private unnamed_addr constant [4 x i8] c"%lf\00", align 1
@.str.19 = private unnamed_addr constant [18 x i8] c"bad edge len \22%s\22\00", align 1

; Function Attrs: nounwind uwtable
define internal i32 @lenattr(ptr noundef %0, ptr noundef %1, ptr noundef %2) #0 {
  %4 = alloca i32, align 4
  %5 = alloca ptr, align 8
  %6 = alloca ptr, align 8
  %7 = alloca ptr, align 8
  %8 = alloca ptr, align 8
  %9 = alloca i32, align 4
  store ptr %0, ptr %5, align 8, !tbaa !78
  store ptr %1, ptr %6, align 8, !tbaa !43
  store ptr %2, ptr %7, align 8, !tbaa !12
  call void @llvm.lifetime.start.p0(i64 8, ptr %8) #11
  %10 = load ptr, ptr %6, align 8, !tbaa !43
  %11 = icmp eq ptr %10, null
  br i1 %11, label %12, label %13

12:                                               ; preds = %3
  store i32 1, ptr %4, align 4
  store i32 1, ptr %9, align 4
  br label %41

13:                                               ; preds = %3
  %14 = load ptr, ptr %5, align 8, !tbaa !78
  %15 = load ptr, ptr %6, align 8, !tbaa !43
  %16 = call ptr @agxget(ptr noundef %14, ptr noundef %15)
  store ptr %16, ptr %8, align 8, !tbaa !45
  %17 = load ptr, ptr %8, align 8, !tbaa !45
  %18 = load i8, ptr %17, align 1, !tbaa !24
  %19 = sext i8 %18 to i32
  %20 = icmp eq i32 %19, 0
  br i1 %20, label %21, label %22

21:                                               ; preds = %13
  store i32 1, ptr %4, align 4
  store i32 1, ptr %9, align 4
  br label %41

22:                                               ; preds = %13
  %23 = load ptr, ptr %8, align 8, !tbaa !45
  %24 = load ptr, ptr %7, align 8, !tbaa !12
  %25 = call i32 (ptr, ptr, ...) @__isoc99_sscanf(ptr noundef %23, ptr noundef @.str.18, ptr noundef %24) #11
  %26 = icmp slt i32 %25, 1
  br i1 %26, label %38, label %27

27:                                               ; preds = %22
  %28 = load ptr, ptr %7, align 8, !tbaa !12
  %29 = load double, ptr %28, align 8, !tbaa !7
  %30 = fcmp olt double %29, 0.000000e+00
  br i1 %30, label %38, label %31

31:                                               ; preds = %27
  %32 = load ptr, ptr %7, align 8, !tbaa !12
  %33 = load double, ptr %32, align 8, !tbaa !7
  %34 = fcmp oeq double %33, 0.000000e+00
  br i1 %34, label %35, label %40

35:                                               ; preds = %31
  %36 = load i32, ptr @Nop, align 4, !tbaa !3
  %37 = icmp ne i32 %36, 0
  br i1 %37, label %40, label %38

38:                                               ; preds = %35, %27, %22
  %39 = load ptr, ptr %8, align 8, !tbaa !45
  call void (ptr, ...) @agwarningf(ptr noundef @.str.19, ptr noundef %39)
  store i32 2, ptr %4, align 4
  store i32 1, ptr %9, align 4
  br label %41

40:                                               ; preds = %35, %31
  store i32 0, ptr %4, align 4
  store i32 1, ptr %9, align 4
  br label %41

41:                                               ; preds = %40, %38, %21, %12
  call void @llvm.lifetime.end.p0(i64 8, ptr %8) #11
  %42 = load i32, ptr %4, align 4
  ret i32 %42
}

; Function Attrs: nounwind uwtable
define internal double @setEdgeLen(ptr noundef %0, ptr noundef %1, ptr noundef %2, double noundef %3) #0 {
  %5 = alloca ptr, align 8
  %6 = alloca ptr, align 8
  %7 = alloca ptr, align 8
  %8 = alloca double, align 8
  %9 = alloca ptr, align 8
  %10 = alloca double, align 8
  %11 = alloca double, align 8
  %12 = alloca i32, align 4
  store ptr %0, ptr %5, align 8, !tbaa !22
  store ptr %1, ptr %6, align 8, !tbaa !29
  store ptr %2, ptr %7, align 8, !tbaa !43
  store double %3, ptr %8, align 8, !tbaa !7
  call void @llvm.lifetime.start.p0(i64 8, ptr %9) #11
  call void @llvm.lifetime.start.p0(i64 8, ptr %10) #11
  store double 0.000000e+00, ptr %10, align 8, !tbaa !7
  call void @llvm.lifetime.start.p0(i64 8, ptr %11) #11
  call void @llvm.lifetime.start.p0(i64 4, ptr %12) #11
  %13 = load ptr, ptr %5, align 8, !tbaa !22
  %14 = load ptr, ptr %6, align 8, !tbaa !29
  %15 = call ptr @agfstout(ptr noundef %13, ptr noundef %14)
  store ptr %15, ptr %9, align 8, !tbaa !78
  br label %16

16:                                               ; preds = %43, %4
  %17 = load ptr, ptr %9, align 8, !tbaa !78
  %18 = icmp ne ptr %17, null
  br i1 %18, label %19, label %47

19:                                               ; preds = %16
  %20 = load ptr, ptr %9, align 8, !tbaa !78
  %21 = load ptr, ptr %7, align 8, !tbaa !43
  %22 = call i32 @lenattr(ptr noundef %20, ptr noundef %21, ptr noundef %11)
  store i32 %22, ptr %12, align 4, !tbaa !3
  %23 = icmp ne i32 %22, 0
  br i1 %23, label %24, label %34

24:                                               ; preds = %19
  %25 = load i32, ptr %12, align 4, !tbaa !3
  %26 = icmp eq i32 %25, 2
  br i1 %26, label %27, label %32

27:                                               ; preds = %24
  %28 = load ptr, ptr %5, align 8, !tbaa !22
  %29 = call ptr @agnameof(ptr noundef %28)
  %30 = load double, ptr %8, align 8, !tbaa !7
  %31 = call i32 (i32, ptr, ...) @agerr(i32 noundef 3, ptr noundef @.str.17, ptr noundef %29, double noundef %30)
  br label %32

32:                                               ; preds = %27, %24
  %33 = load double, ptr %8, align 8, !tbaa !7
  store double %33, ptr %11, align 8, !tbaa !7
  br label %34

34:                                               ; preds = %32, %19
  %35 = load double, ptr %11, align 8, !tbaa !7
  %36 = load ptr, ptr %9, align 8, !tbaa !78
  %37 = getelementptr inbounds nuw %struct.Agobj_s, ptr %36, i32 0, i32 1
  %38 = load ptr, ptr %37, align 8, !tbaa !47
  %39 = getelementptr inbounds nuw %struct.Agedgeinfo_t, ptr %38, i32 0, i32 16
  store double %35, ptr %39, align 8, !tbaa !83
  %40 = load double, ptr %11, align 8, !tbaa !7
  %41 = load double, ptr %10, align 8, !tbaa !7
  %42 = fadd double %41, %40
  store double %42, ptr %10, align 8, !tbaa !7
  br label %43

43:                                               ; preds = %34
  %44 = load ptr, ptr %5, align 8, !tbaa !22
  %45 = load ptr, ptr %9, align 8, !tbaa !78
  %46 = call ptr @agnxtout(ptr noundef %44, ptr noundef %45)
  store ptr %46, ptr %9, align 8, !tbaa !78
  br label %16, !llvm.loop !89

47:                                               ; preds = %16
  %48 = load double, ptr %10, align 8, !tbaa !7
  call void @llvm.lifetime.end.p0(i64 4, ptr %12) #11
  call void @llvm.lifetime.end.p0(i64 8, ptr %11) #11
  call void @llvm.lifetime.end.p0(i64 8, ptr %10) #11
  call void @llvm.lifetime.end.p0(i64 8, ptr %9) #11
  ret double %48
}