; Function Attrs: nounwind uwtable
define internal fastcc double @setEdgeLen(ptr noundef %0, ptr noundef nonnull %1, ptr noundef %2) unnamed_addr #4 {
  %4 = alloca double, align 8
  call void @llvm.lifetime.start.p0(i64 8, ptr nonnull %4) #21
  %5 = tail call ptr @agfstout(ptr noundef %0, ptr noundef nonnull %1) #21
  %.not19 = icmp eq ptr %5, null
  br i1 %.not19, label %._crit_edge, label %.lr.ph

.lr.ph:                                           ; preds = %3
  %6 = icmp eq ptr %2, null
  br i1 %6, label %lenattr.exit.thread.us, label %.lr.ph.split

lenattr.exit.thread.us:                           ; preds = %.lr.ph, %lenattr.exit.thread.us
  %.021.us = phi ptr [ %11, %lenattr.exit.thread.us ], [ %5, %.lr.ph ]
  %.01320.us = phi double [ %10, %lenattr.exit.thread.us ], [ 0.000000e+00, %.lr.ph ]
  %7 = getelementptr inbounds nuw i8, ptr %.021.us, i64 16
  %8 = load ptr, ptr %7, align 8, !tbaa !40
  %9 = getelementptr inbounds nuw i8, ptr %8, i64 184
  store double 1.000000e+00, ptr %9, align 8, !tbaa !77
  %10 = fadd double %.01320.us, 1.000000e+00
  %11 = tail call ptr @agnxtout(ptr noundef %0, ptr noundef nonnull %.021.us) #21
  %.not.us = icmp eq ptr %11, null
  br i1 %.not.us, label %._crit_edge, label %lenattr.exit.thread.us, !llvm.loop !83

.lr.ph.split:                                     ; preds = %.lr.ph, %lenattr.exit.thread17
  %.021 = phi ptr [ %33, %lenattr.exit.thread17 ], [ %5, %.lr.ph ]
  %.01320 = phi double [ %32, %lenattr.exit.thread17 ], [ 0.000000e+00, %.lr.ph ]
  %12 = call ptr @agxget(ptr noundef nonnull %.021, ptr noundef nonnull %2) #21
  %13 = load i8, ptr %12, align 1, !tbaa !15
  %14 = icmp eq i8 %13, 0
  br i1 %14, label %lenattr.exit.thread, label %15

15:                                               ; preds = %.lr.ph.split
  %16 = call i32 (ptr, ptr, ...) @__isoc99_sscanf(ptr noundef nonnull %12, ptr noundef nonnull @.str.18, ptr noundef nonnull %4) #21
  %17 = icmp slt i32 %16, 1
  br i1 %17, label %25, label %18

18:                                               ; preds = %15
  %19 = load double, ptr %4, align 8, !tbaa !10
  %20 = fcmp olt double %19, 0.000000e+00
  br i1 %20, label %25, label %21

21:                                               ; preds = %18
  %22 = fcmp une double %19, 0.000000e+00
  %23 = load i32, ptr @Nop, align 4
  %24 = icmp ne i32 %23, 0
  %or.cond.i = select i1 %22, i1 true, i1 %24
  br i1 %or.cond.i, label %lenattr.exit.thread17, label %25

25:                                               ; preds = %21, %18, %15
  call void (ptr, ...) @agwarningf(ptr noundef nonnull @.str.19, ptr noundef nonnull %12) #21
  %26 = call ptr @agnameof(ptr noundef %0) #21
  %27 = call i32 (i32, ptr, ...) @agerr(i32 noundef 3, ptr noundef nonnull @.str.17, ptr noundef %26, double noundef 1.000000e+00) #21
  br label %lenattr.exit.thread

lenattr.exit.thread:                              ; preds = %.lr.ph.split, %25
  store double 1.000000e+00, ptr %4, align 8, !tbaa !10
  br label %lenattr.exit.thread17

lenattr.exit.thread17:                            ; preds = %21, %lenattr.exit.thread
  %28 = phi double [ %19, %21 ], [ 1.000000e+00, %lenattr.exit.thread ]
  %29 = getelementptr inbounds nuw i8, ptr %.021, i64 16
  %30 = load ptr, ptr %29, align 8, !tbaa !40
  %31 = getelementptr inbounds nuw i8, ptr %30, i64 184
  store double %28, ptr %31, align 8, !tbaa !77
  %32 = fadd double %.01320, %28
  %33 = call ptr @agnxtout(ptr noundef %0, ptr noundef nonnull %.021) #21
  %.not = icmp eq ptr %33, null
  br i1 %.not, label %._crit_edge, label %.lr.ph.split, !llvm.loop !83

._crit_edge:                                      ; preds = %lenattr.exit.thread17, %lenattr.exit.thread.us, %3
  %.013.lcssa = phi double [ 0.000000e+00, %3 ], [ %10, %lenattr.exit.thread.us ], [ %32, %lenattr.exit.thread17 ]
  call void @llvm.lifetime.end.p0(i64 8, ptr nonnull %4) #21
  ret double %.013.lcssa
}